target datalayout = "e-m:e-p270:32:32-p271:32:32-p272:64:64-i64:64-i128:128-f80:128-n8:16:32:64-S128"
target triple = "x86_64-unknown-linux-gnu"

%"class.pugi::xpath_node" = type { %"class.pugi::xml_node", %"class.pugi::xml_attribute" }
%"class.pugi::xml_node" = type { ptr }
%"class.pugi::xml_attribute" = type { ptr }
%"struct.pugi::xml_node_struct" = type { i64, ptr, ptr, ptr, ptr, ptr, ptr, ptr }

@_ZN4pugi8xml_nodeC1Ev = unnamed_addr alias void (ptr), ptr @_ZN4pugi8xml_nodeC2Ev

; Function Attrs: mustprogress nounwind uwtable
define noundef ptr @_ZNK4pugi13xml_attributecvPFvPPPS0_EEv(ptr noundef nonnull align 8 dereferenceable(8) %this) #0 align 2 {
entry:
  %this.addr = alloca ptr, align 8
  store ptr %this, ptr %this.addr, align 8
  %this1 = load ptr, ptr %this.addr, align 8
  %_attr = getelementptr inbounds %"class.pugi::xml_attribute", ptr %this1, i32 0, i32 0
  %0 = load ptr, ptr %_attr, align 8
  %tobool = icmp ne ptr %0, null
  %cond = select i1 %tobool, ptr @_ZN4pugiL30unspecified_bool_xml_attributeEPPPNS_13xml_attributeE, ptr null
  ret ptr %cond
}

; Function Attrs: mustprogress uwtable
define internal void @_ZN4pugi4impl12_GLOBAL__N_114xpath_ast_node9step_fillINS1_12axis_to_typeILNS1_6axis_tE4EEEEEvRNS1_18xpath_node_set_rawEPNS_15xml_node_structEPNS1_15xpath_allocatorEbT_(ptr noundef nonnull align 8 dereferenceable(40) %this, ptr noundef nonnull align 8 dereferenceable(32) %ns, ptr noundef %n, ptr noundef %alloc, i1 noundef zeroext %once) #2 align 2 {
entry:
  %this.addr = alloca ptr, align 8
  %ns.addr = alloca ptr, align 8
  %n.addr = alloca ptr, align 8
  %alloc.addr = alloca ptr, align 8
  %once.addr = alloca i8, align 1
  %axis = alloca i32, align 4
  %cur = alloca ptr, align 8
  store ptr %this, ptr %this.addr, align 8
  store ptr %ns, ptr %ns.addr, align 8
  store ptr %n, ptr %n.addr, align 8
  store ptr %alloc, ptr %alloc.addr, align 8
  %frombool = zext i1 %once to i8
  store i8 %frombool, ptr %once.addr, align 1
  %this1 = load ptr, ptr %this.addr, align 8
  store i32 4, ptr %axis, align 4
  %0 = load ptr, ptr %n.addr, align 8
  %first_child = getelementptr inbounds %"struct.pugi::xml_node_struct", ptr %0, i32 0, i32 4
  %1 = load ptr, ptr %first_child, align 8
  store ptr %1, ptr %cur, align 8
  br label %while.cond

while.cond:                                       ; preds = %if.end15, %entry
  %2 = load ptr, ptr %cur, align 8
  %tobool = icmp ne ptr %2, null
  br i1 %tobool, label %while.body, label %while.end16

while.body:                                       ; preds = %while.cond
  %3 = load ptr, ptr %ns.addr, align 8
  %4 = load ptr, ptr %cur, align 8
  %5 = load ptr, ptr %alloc.addr, align 8
  %call = call noundef zeroext i1 @_ZN4pugi4impl12_GLOBAL__N_114xpath_ast_node9step_pushERNS1_18xpath_node_set_rawEPNS_15xml_node_structEPNS1_15xpath_allocatorE(ptr noundef nonnull align 8 dereferenceable(40) %this1, ptr noundef nonnull align 8 dereferenceable(32) %3, ptr noundef %4, ptr noundef %5)
  %conv = zext i1 %call to i32
  %6 = load i8, ptr %once.addr, align 1
  %tobool2 = trunc i8 %6 to i1
  %conv3 = zext i1 %tobool2 to i32
  %and = and i32 %conv, %conv3
  %tobool4 = icmp ne i32 %and, 0
  br i1 %tobool4, label %if.then, label %if.end

if.then:                                          ; preds = %while.body
  br label %while.end16

if.end:                                           ; preds = %while.body
  %7 = load ptr, ptr %cur, align 8
  %first_child5 = getelementptr inbounds %"struct.pugi::xml_node_struct", ptr %7, i32 0, i32 4
  %8 = load ptr, ptr %first_child5, align 8
  %tobool6 = icmp ne ptr %8, null
  br i1 %tobool6, label %if.then7, label %if.else

if.then7:                                         ; preds = %if.end
  %9 = load ptr, ptr %cur, align 8
  %first_child8 = getelementptr inbounds %"struct.pugi::xml_node_struct", ptr %9, i32 0, i32 4
  %10 = load ptr, ptr %first_child8, align 8
  store ptr %10, ptr %cur, align 8
  br label %if.end15

if.else:                                          ; preds = %if.end
  br label %while.cond9

while.cond9:                                      ; preds = %if.end13, %if.else
  %11 = load ptr, ptr %cur, align 8
  %next_sibling = getelementptr inbounds %"struct.pugi::xml_node_struct", ptr %11, i32 0, i32 6
  %12 = load ptr, ptr %next_sibling, align 8
  %tobool10 = icmp ne ptr %12, null
  %lnot = xor i1 %tobool10, true
  br i1 %lnot, label %while.body11, label %while.end

while.body11:                                     ; preds = %while.cond9
  %13 = load ptr, ptr %cur, align 8
  %parent = getelementptr inbounds %"struct.pugi::xml_node_struct", ptr %13, i32 0, i32 3
  %14 = load ptr, ptr %parent, align 8
  store ptr %14, ptr %cur, align 8
  %15 = load ptr, ptr %cur, align 8
  %16 = load ptr, ptr %n.addr, align 8
  %cmp = icmp eq ptr %15, %16
  br i1 %cmp, label %if.then12, label %if.end13

if.then12:                                        ; preds = %while.body11
  br label %while.end16

if.end13:                                         ; preds = %while.body11
  br label %while.cond9, !llvm.loop !290

while.end:                                        ; preds = %while.cond9
  %17 = load ptr, ptr %cur, align 8
  %next_sibling14 = getelementptr inbounds %"struct.pugi::xml_node_struct", ptr %17, i32 0, i32 6
  %18 = load ptr, ptr %next_sibling14, align 8
  store ptr %18, ptr %cur, align 8
  br label %if.end15

if.end15:                                         ; preds = %while.end, %if.then7
  br label %while.cond, !llvm.loop !291

while.end16:                                      ; preds = %if.then12, %if.then, %while.cond
  ret void
}

; Function Attrs: mustprogress nounwind uwtable
define noundef ptr @_ZNK4pugi8xml_node15internal_objectEv(ptr noundef nonnull align 8 dereferenceable(8) %this) #0 align 2 {
entry:
  %this.addr = alloca ptr, align 8
  store ptr %this, ptr %this.addr, align 8
  %this1 = load ptr, ptr %this.addr, align 8
  %_root = getelementptr inbounds %"class.pugi::xml_node", ptr %this1, i32 0, i32 0
  %0 = load ptr, ptr %_root, align 8
  ret ptr %0
}

; Function Attrs: mustprogress nounwind uwtable
define noundef ptr @_ZNK4pugi8xml_nodecvPFvPPPS0_EEv(ptr noundef nonnull align 8 dereferenceable(8) %this) #0 align 2 {
entry:
  %this.addr = alloca ptr, align 8
  store ptr %this, ptr %this.addr, align 8
  %this1 = load ptr, ptr %this.addr, align 8
  %_root = getelementptr inbounds %"class.pugi::xml_node", ptr %this1, i32 0, i32 0
  %0 = load ptr, ptr %_root, align 8
  %tobool = icmp ne ptr %0, null
  %cond = select i1 %tobool, ptr @_ZN4pugiL25unspecified_bool_xml_nodeEPPPNS_8xml_nodeE, ptr null
  ret ptr %cond
}

; Function Attrs: mustprogress uwtable
define ptr @_ZNK4pugi10xpath_node4nodeEv(ptr noundef nonnull align 8 dereferenceable(16) %this) #2 align 2 {
entry:
  %retval = alloca %"class.pugi::xml_node", align 8
  %this.addr = alloca ptr, align 8
  store ptr %this, ptr %this.addr, align 8
  %this1 = load ptr, ptr %this.addr, align 8
  %_attribute = getelementptr inbounds %"class.pugi::xpath_node", ptr %this1, i32 0, i32 1
  %call = call noundef ptr @_ZNK4pugi13xml_attributecvPFvPPPS0_EEv(ptr noundef nonnull align 8 dereferenceable(8) %_attribute)
  %tobool = icmp ne ptr %call, null
  br i1 %tobool, label %cond.true, label %cond.false

cond.true:                                        ; preds = %entry
  call void @_ZN4pugi8xml_nodeC1Ev(ptr noundef nonnull align 8 dereferenceable(8) %retval)
  br label %cond.end

cond.false:                                       ; preds = %entry
  %_node = getelementptr inbounds %"class.pugi::xpath_node", ptr %this1, i32 0, i32 0
  call void @llvm.memcpy.p0.p0.i64(ptr align 8 %retval, ptr align 8 %_node, i64 8, i1 false)
  br label %cond.end

cond.end:                                         ; preds = %cond.false, %cond.true
  %coerce.dive = getelementptr inbounds %"class.pugi::xml_node", ptr %retval, i32 0, i32 0
  %0 = load ptr, ptr %coerce.dive, align 8
  ret ptr %0
}

; Function Attrs: mustprogress uwtable
define internal void @_ZN4pugi4impl12_GLOBAL__N_114xpath_ast_node9step_fillINS1_12axis_to_typeILNS1_6axis_tE4EEEEEvRNS1_18xpath_node_set_rawERKNS_10xpath_nodeEPNS1_15xpath_allocatorEbT_(ptr noundef nonnull align 8 dereferenceable(40) %this, ptr noundef nonnull align 8 dereferenceable(32) %ns, ptr noundef nonnull align 8 dereferenceable(16) %xn, ptr noundef %alloc, i1 noundef zeroext %once) #2 align 2 {
entry:
  %this.addr = alloca ptr, align 8
  %ns.addr = alloca ptr, align 8
  %xn.addr = alloca ptr, align 8
  %alloc.addr = alloca ptr, align 8
  %once.addr = alloca i8, align 1
  %axis = alloca i32, align 4
  %axis_has_attributes = alloca i8, align 1
  %ref.tmp = alloca %"class.pugi::xml_node", align 8
  %ref.tmp3 = alloca %"class.pugi::xml_node", align 8
  store ptr %this, ptr %this.addr, align 8
  store ptr %ns, ptr %ns.addr, align 8
  store ptr %xn, ptr %xn.addr, align 8
  store ptr %alloc, ptr %alloc.addr, align 8
  %frombool = zext i1 %once to i8
  store i8 %frombool, ptr %once.addr, align 1
  %this1 = load ptr, ptr %this.addr, align 8
  store i32 4, ptr %axis, align 4
  store i8 0, ptr %axis_has_attributes, align 1
  %0 = load ptr, ptr %xn.addr, align 8
  %call = call ptr @_ZNK4pugi10xpath_node4nodeEv(ptr noundef nonnull align 8 dereferenceable(16) %0)
  %coerce.dive = getelementptr inbounds %"class.pugi::xml_node", ptr %ref.tmp, i32 0, i32 0
  store ptr %call, ptr %coerce.dive, align 8
  %call2 = call noundef ptr @_ZNK4pugi8xml_nodecvPFvPPPS0_EEv(ptr noundef nonnull align 8 dereferenceable(8) %ref.tmp)
  %tobool = icmp ne ptr %call2, null
  br i1 %tobool, label %if.then, label %if.else

if.then:                                          ; preds = %entry
  %1 = load ptr, ptr %ns.addr, align 8
  %2 = load ptr, ptr %xn.addr, align 8
  %call4 = call ptr @_ZNK4pugi10xpath_node4nodeEv(ptr noundef nonnull align 8 dereferenceable(16) %2)
  %coerce.dive5 = getelementptr inbounds %"class.pugi::xml_node", ptr %ref.tmp3, i32 0, i32 0
  store ptr %call4, ptr %coerce.dive5, align 8
  %call6 = call noundef ptr @_ZNK4pugi8xml_node15internal_objectEv(ptr noundef nonnull align 8 dereferenceable(8) %ref.tmp3)
  %3 = load ptr, ptr %alloc.addr, align 8
  %4 = load i8, ptr %once.addr, align 1
  %tobool7 = trunc i8 %4 to i1
  call void @_ZN4pugi4impl12_GLOBAL__N_114xpath_ast_node9step_fillINS1_12axis_to_typeILNS1_6axis_tE4EEEEEvRNS1_18xpath_node_set_rawEPNS_15xml_node_structEPNS1_15xpath_allocatorEbT_(ptr noundef nonnull align 8 dereferenceable(40) %this1, ptr noundef nonnull align 8 dereferenceable(32) %1, ptr noundef %call6, ptr noundef %3, i1 noundef zeroext %tobool7)
  br label %if.end

if.else:                                          ; preds = %entry
  br label %if.end

if.end:                                           ; preds = %if.else, %if.then
  ret void
}