; Function Attrs: mustprogress uwtable
define internal fastcc void @_ZN4pugi4impl12_GLOBAL__N_114xpath_ast_node9step_fillINS1_12axis_to_typeILNS1_6axis_tE4EEEEEvRNS1_18xpath_node_set_rawERKNS_10xpath_nodeEPNS1_15xpath_allocatorEbT_(ptr nocapture noundef nonnull readonly align 8 dereferenceable(40) %this, ptr nocapture noundef nonnull align 8 dereferenceable(32) %ns, ptr nocapture noundef nonnull readonly align 8 dereferenceable(16) %xn, ptr nocapture noundef %alloc, i1 noundef zeroext %once) unnamed_addr #6 align 2 {
entry:
  %retval.i2 = alloca %"class.pugi::xml_node", align 8
  %retval.i = alloca %"class.pugi::xml_node", align 8
  call void @llvm.lifetime.start.p0(i64 8, ptr nonnull %retval.i)
  %_attribute.i = getelementptr inbounds i8, ptr %xn, i64 8
  %0 = load ptr, ptr %_attribute.i, align 8
  %tobool.not.i.i = icmp eq ptr %0, null
  br i1 %tobool.not.i.i, label %cond.false.i, label %cond.true.i

cond.true.i:                                      ; preds = %entry
  call void @_ZN4pugi8xml_nodeC1Ev(ptr noundef nonnull align 8 dereferenceable(8) %retval.i)
  %.pre.i = load ptr, ptr %retval.i, align 8
  br label %_ZNK4pugi10xpath_node4nodeEv.exit

cond.false.i:                                     ; preds = %entry
  %1 = load i64, ptr %xn, align 8
  %2 = inttoptr i64 %1 to ptr
  br label %_ZNK4pugi10xpath_node4nodeEv.exit

_ZNK4pugi10xpath_node4nodeEv.exit:                ; preds = %cond.true.i, %cond.false.i
  %3 = phi ptr [ %2, %cond.false.i ], [ %.pre.i, %cond.true.i ]
  call void @llvm.lifetime.end.p0(i64 8, ptr nonnull %retval.i)
  %tobool.not.i = icmp eq ptr %3, null
  br i1 %tobool.not.i, label %if.end, label %if.then

if.then:                                          ; preds = %_ZNK4pugi10xpath_node4nodeEv.exit
  call void @llvm.lifetime.start.p0(i64 8, ptr nonnull %retval.i2)
  %4 = load ptr, ptr %_attribute.i, align 8
  %tobool.not.i.i4 = icmp eq ptr %4, null
  br i1 %tobool.not.i.i4, label %cond.false.i7, label %cond.true.i5

cond.true.i5:                                     ; preds = %if.then
  call void @_ZN4pugi8xml_nodeC1Ev(ptr noundef nonnull align 8 dereferenceable(8) %retval.i2)
  %.pre.i6 = load ptr, ptr %retval.i2, align 8
  br label %_ZNK4pugi10xpath_node4nodeEv.exit8

cond.false.i7:                                    ; preds = %if.then
  %5 = load i64, ptr %xn, align 8
  %6 = inttoptr i64 %5 to ptr
  br label %_ZNK4pugi10xpath_node4nodeEv.exit8

_ZNK4pugi10xpath_node4nodeEv.exit8:               ; preds = %cond.true.i5, %cond.false.i7
  %7 = phi ptr [ %6, %cond.false.i7 ], [ %.pre.i6, %cond.true.i5 ]
  call void @llvm.lifetime.end.p0(i64 8, ptr nonnull %retval.i2)
  %first_child.i = getelementptr inbounds i8, ptr %7, i64 32
  %8 = load ptr, ptr %first_child.i, align 8
  %tobool.not14.i = icmp eq ptr %8, null
  br i1 %tobool.not14.i, label %if.end, label %while.body.lr.ph.i

while.body.lr.ph.i:                               ; preds = %_ZNK4pugi10xpath_node4nodeEv.exit8
  %9 = getelementptr inbounds i8, ptr %this, i64 3
  %10 = getelementptr inbounds i8, ptr %this, i64 32
  br i1 %once, label %while.body.i.preheader, label %while.body.us.i

while.body.i.preheader:                           ; preds = %while.body.lr.ph.i
  %this.val.i14 = load i8, ptr %9, align 1
  %this.val11.i15 = load ptr, ptr %10, align 8
  %call.i16 = call fastcc noundef zeroext i1 @_ZN4pugi4impl12_GLOBAL__N_114xpath_ast_node9step_pushERNS1_18xpath_node_set_rawEPNS_15xml_node_structEPNS1_15xpath_allocatorE(i8 %this.val.i14, ptr %this.val11.i15, ptr noundef nonnull align 8 dereferenceable(32) %ns, ptr noundef nonnull %8, ptr noundef %alloc)
  br i1 %call.i16, label %if.end, label %if.end.i

while.body.us.i:                                  ; preds = %while.body.lr.ph.i, %while.body.us.i.backedge
  %cur.015.us.i = phi ptr [ %cur.015.us.i.be, %while.body.us.i.backedge ], [ %8, %while.body.lr.ph.i ]
  %this.val.us.i = load i8, ptr %9, align 1
  %this.val11.us.i = load ptr, ptr %10, align 8
  %call.us.i = call fastcc noundef zeroext i1 @_ZN4pugi4impl12_GLOBAL__N_114xpath_ast_node9step_pushERNS1_18xpath_node_set_rawEPNS_15xml_node_structEPNS1_15xpath_allocatorE(i8 %this.val.us.i, ptr %this.val11.us.i, ptr noundef nonnull align 8 dereferenceable(32) %ns, ptr noundef nonnull %cur.015.us.i, ptr noundef %alloc)
  %first_child5.us.i = getelementptr inbounds i8, ptr %cur.015.us.i, i64 32
  %11 = load ptr, ptr %first_child5.us.i, align 8
  %tobool6.not.us.i = icmp eq ptr %11, null
  br i1 %tobool6.not.us.i, label %while.cond9.us.i, label %while.body.us.i.backedge

while.body.us.i.backedge:                         ; preds = %while.cond9.us.i, %while.body.us.i
  %cur.015.us.i.be = phi ptr [ %11, %while.body.us.i ], [ %12, %while.cond9.us.i ]
  br label %while.body.us.i, !llvm.loop !410

while.cond9.us.i:                                 ; preds = %while.body.us.i, %while.body11.us.i
  %cur.1.us.i = phi ptr [ %13, %while.body11.us.i ], [ %cur.015.us.i, %while.body.us.i ]
  %next_sibling.us.i = getelementptr inbounds i8, ptr %cur.1.us.i, i64 48
  %12 = load ptr, ptr %next_sibling.us.i, align 8
  %tobool10.not.us.i = icmp eq ptr %12, null
  br i1 %tobool10.not.us.i, label %while.body11.us.i, label %while.body.us.i.backedge, !llvm.loop !410

while.body11.us.i:                                ; preds = %while.cond9.us.i
  %parent.us.i = getelementptr inbounds i8, ptr %cur.1.us.i, i64 24
  %13 = load ptr, ptr %parent.us.i, align 8
  %cmp.us.i = icmp eq ptr %13, %7
  br i1 %cmp.us.i, label %if.end, label %while.cond9.us.i, !llvm.loop !411

if.end.i:                                         ; preds = %while.body.i.preheader, %if.end15.i
  %cur.015.i17 = phi ptr [ %cur.2.i, %if.end15.i ], [ %8, %while.body.i.preheader ]
  %first_child5.i = getelementptr inbounds i8, ptr %cur.015.i17, i64 32
  %14 = load ptr, ptr %first_child5.i, align 8
  %tobool6.not.i = icmp eq ptr %14, null
  br i1 %tobool6.not.i, label %while.cond9.i, label %if.end15.i

while.cond9.i:                                    ; preds = %if.end.i, %while.body11.i
  %cur.1.i = phi ptr [ %16, %while.body11.i ], [ %cur.015.i17, %if.end.i ]
  %next_sibling.i = getelementptr inbounds i8, ptr %cur.1.i, i64 48
  %15 = load ptr, ptr %next_sibling.i, align 8
  %tobool10.not.i = icmp eq ptr %15, null
  br i1 %tobool10.not.i, label %while.body11.i, label %if.end15.i

while.body11.i:                                   ; preds = %while.cond9.i
  %parent.i = getelementptr inbounds i8, ptr %cur.1.i, i64 24
  %16 = load ptr, ptr %parent.i, align 8
  %cmp.i = icmp eq ptr %16, %7
  br i1 %cmp.i, label %if.end, label %while.cond9.i, !llvm.loop !411

if.end15.i:                                       ; preds = %while.cond9.i, %if.end.i
  %cur.2.i = phi ptr [ %14, %if.end.i ], [ %15, %while.cond9.i ]
  %this.val.i = load i8, ptr %9, align 1
  %this.val11.i = load ptr, ptr %10, align 8
  %call.i = call fastcc noundef zeroext i1 @_ZN4pugi4impl12_GLOBAL__N_114xpath_ast_node9step_pushERNS1_18xpath_node_set_rawEPNS_15xml_node_structEPNS1_15xpath_allocatorE(i8 %this.val.i, ptr %this.val11.i, ptr noundef nonnull align 8 dereferenceable(32) %ns, ptr noundef nonnull %cur.2.i, ptr noundef %alloc)
  br i1 %call.i, label %if.end, label %if.end.i, !llvm.loop !410

if.end:                                           ; preds = %while.body11.us.i, %if.end15.i, %while.body11.i, %while.body.i.preheader, %_ZNK4pugi10xpath_node4nodeEv.exit8, %_ZNK4pugi10xpath_node4nodeEv.exit
  ret void
}